target datalayout = "e-m:e-p270:32:32-p271:32:32-p272:64:64-i64:64-i128:128-f80:128-n8:16:32:64-S128"
target triple = "x86_64-pc-linux-gnu"

%struct.JNINativeInterface_ = type { ptr, ptr, ptr, ptr, ptr, ptr, ptr, ptr, ptr, ptr, ptr, ptr, ptr, ptr, ptr, ptr, ptr, ptr, ptr, ptr, ptr, ptr, ptr, ptr, ptr, ptr, ptr, ptr, ptr, ptr, ptr, ptr, ptr, ptr, ptr, ptr, ptr, ptr, ptr, ptr, ptr, ptr, ptr, ptr, ptr, ptr, ptr, ptr, ptr, ptr, ptr, ptr, ptr, ptr, ptr, ptr, ptr, ptr, ptr, ptr, ptr, ptr, ptr, ptr, ptr, ptr, ptr, ptr, ptr, ptr, ptr, ptr, ptr, ptr, ptr, ptr, ptr, ptr, ptr, ptr, ptr, ptr, ptr, ptr, ptr, ptr, ptr, ptr, ptr, ptr, ptr, ptr, ptr, ptr, ptr, ptr, ptr, ptr, ptr, ptr, ptr, ptr, ptr, ptr, ptr, ptr, ptr, ptr, ptr, ptr, ptr, ptr, ptr, ptr, ptr, ptr, ptr, ptr, ptr, ptr, ptr, ptr, ptr, ptr, ptr, ptr, ptr, ptr, ptr, ptr, ptr, ptr, ptr, ptr, ptr, ptr, ptr, ptr, ptr, ptr, ptr, ptr, ptr, ptr, ptr, ptr, ptr, ptr, ptr, ptr, ptr, ptr, ptr, ptr, ptr, ptr, ptr, ptr, ptr, ptr, ptr, ptr, ptr, ptr, ptr, ptr, ptr, ptr, ptr, ptr, ptr, ptr, ptr, ptr, ptr, ptr, ptr, ptr, ptr, ptr, ptr, ptr, ptr, ptr, ptr, ptr, ptr, ptr, ptr, ptr, ptr, ptr, ptr, ptr, ptr, ptr, ptr, ptr, ptr, ptr, ptr, ptr, ptr, ptr, ptr, ptr, ptr, ptr, ptr, ptr, ptr, ptr, ptr, ptr, ptr, ptr, ptr, ptr, ptr, ptr, ptr, ptr, ptr, ptr, ptr, ptr, ptr, ptr, ptr, ptr, ptr, ptr, ptr, ptr, ptr }

@.str.46 = private unnamed_addr constant [25 x i8] c"sun/nio/fs/UnixException\00", align 1
@.str.47 = private unnamed_addr constant [5 x i8] c"(I)V\00", align 1

; Function Attrs: nounwind uwtable
define internal void @throwUnixException(ptr noundef %0, i32 noundef %1) #0 {
  %3 = alloca ptr, align 8
  %4 = alloca i32, align 4
  %5 = alloca ptr, align 8
  store ptr %0, ptr %3, align 8
  store i32 %1, ptr %4, align 4
  %6 = load ptr, ptr %3, align 8
  %7 = load i32, ptr %4, align 4
  %8 = call ptr (ptr, ptr, ptr, ...) @JNU_NewObjectByName(ptr noundef %6, ptr noundef @.str.46, ptr noundef @.str.47, i32 noundef %7)
  store ptr %8, ptr %5, align 8
  %9 = load ptr, ptr %5, align 8
  %10 = icmp ne ptr %9, null
  br i1 %10, label %11, label %19

11:                                               ; preds = %2
  %12 = load ptr, ptr %3, align 8
  %13 = load ptr, ptr %12, align 8
  %14 = getelementptr inbounds %struct.JNINativeInterface_, ptr %13, i32 0, i32 13
  %15 = load ptr, ptr %14, align 8
  %16 = load ptr, ptr %3, align 8
  %17 = load ptr, ptr %5, align 8
  %18 = call i32 %15(ptr noundef %16, ptr noundef %17)
  br label %19

19:                                               ; preds = %11, %2
  ret void
}

; Function Attrs: nounwind uwtable
define i32 @Java_sun_nio_fs_UnixNativeDispatcher_fgetxattr0(ptr noundef %0, ptr noundef %1, i32 noundef %2, i64 noundef %3, i64 noundef %4, i32 noundef %5) #0 {
  %7 = alloca ptr, align 8
  %8 = alloca ptr, align 8
  %9 = alloca i32, align 4
  %10 = alloca i64, align 8
  %11 = alloca i64, align 8
  %12 = alloca i32, align 4
  %13 = alloca i64, align 8
  %14 = alloca ptr, align 8
  %15 = alloca ptr, align 8
  store ptr %0, ptr %7, align 8
  store ptr %1, ptr %8, align 8
  store i32 %2, ptr %9, align 4
  store i64 %3, ptr %10, align 8
  store i64 %4, ptr %11, align 8
  store i32 %5, ptr %12, align 4
  store i64 -1, ptr %13, align 8
  %16 = load i64, ptr %10, align 8
  %17 = inttoptr i64 %16 to ptr
  store ptr %17, ptr %14, align 8
  %18 = load i64, ptr %11, align 8
  %19 = inttoptr i64 %18 to ptr
  store ptr %19, ptr %15, align 8
  %20 = load i32, ptr %9, align 4
  %21 = load ptr, ptr %14, align 8
  %22 = load ptr, ptr %15, align 8
  %23 = load i32, ptr %12, align 4
  %24 = sext i32 %23 to i64
  %25 = call i64 @fgetxattr(i32 noundef %20, ptr noundef %21, ptr noundef %22, i64 noundef %24) #6
  store i64 %25, ptr %13, align 8
  %26 = load i64, ptr %13, align 8
  %27 = icmp eq i64 %26, -1
  br i1 %27, label %28, label %32

28:                                               ; preds = %6
  %29 = load ptr, ptr %7, align 8
  %30 = call ptr @__errno_location() #7
  %31 = load i32, ptr %30, align 4
  call void @throwUnixException(ptr noundef %29, i32 noundef %31)
  br label %32

32:                                               ; preds = %28, %6
  %33 = load i64, ptr %13, align 8
  %34 = trunc i64 %33 to i32
  ret i32 %34
}