; Function Attrs: nounwind uwtable
define i32 @Java_sun_nio_fs_UnixNativeDispatcher_fgetxattr0(ptr noundef %0, ptr nocapture noundef readnone %1, i32 noundef %2, i64 noundef %3, i64 noundef %4, i32 noundef %5) local_unnamed_addr #0 {
  %7 = inttoptr i64 %3 to ptr
  %8 = inttoptr i64 %4 to ptr
  %9 = sext i32 %5 to i64
  %10 = tail call i64 @fgetxattr(i32 noundef %2, ptr noundef %7, ptr noundef %8, i64 noundef %9) #11
  %11 = icmp eq i64 %10, -1
  br i1 %11, label %12, label %throwUnixException.exit

12:                                               ; preds = %6
  %13 = tail call ptr @__errno_location() #12
  %14 = load i32, ptr %13, align 4
  %15 = tail call ptr (ptr, ptr, ptr, ...) @JNU_NewObjectByName(ptr noundef %0, ptr noundef nonnull @.str.46, ptr noundef nonnull @.str.47, i32 noundef %14) #11
  %.not.i = icmp eq ptr %15, null
  br i1 %.not.i, label %throwUnixException.exit, label %16

16:                                               ; preds = %12
  %17 = load ptr, ptr %0, align 8
  %18 = getelementptr inbounds i8, ptr %17, i64 104
  %19 = load ptr, ptr %18, align 8
  %20 = tail call i32 %19(ptr noundef nonnull %0, ptr noundef nonnull %15) #11
  br label %throwUnixException.exit

throwUnixException.exit:                          ; preds = %16, %12, %6
  %21 = trunc i64 %10 to i32
  ret i32 %21
}